; ModuleID = '21/329.c'
source_filename = "21/329.c"
target datalayout = "e-m:e-p270:32:32-p271:32:32-p272:64:64-i64:64-f80:128-n8:16:32:64-S128"
target triple = "x86_64-pc-linux-gnu"

@.str = private unnamed_addr constant [3 x i8] c"%d\00", align 1
@.str.1 = private unnamed_addr constant [7 x i8] c"%d,%d\0A\00", align 1
@.str.2 = private unnamed_addr constant [4 x i8] c"%d\0A\00", align 1

; Function Attrs: noinline nounwind uwtable
define dso_local void @main() #0 {
  %1 = alloca i32, align 4
  %2 = alloca i32, align 4
  %3 = alloca i32, align 4
  %4 = alloca i32, align 4
  %5 = alloca [301 x i32], align 16
  %6 = alloca float, align 4
  %7 = alloca float, align 4
  store float 0.000000e+00, float* %6, align 4
  store float 0.000000e+00, float* %7, align 4
  %8 = call i32 (i8*, ...) @__isoc99_scanf(i8* getelementptr inbounds ([3 x i8], [3 x i8]* @.str, i64 0, i64 0), i32* %1)
  store i32 0, i32* %2, align 4
  br label %9

9:                                                ; preds = %18, %0
  %10 = load i32, i32* %2, align 4
  %11 = load i32, i32* %1, align 4
  %12 = icmp slt i32 %10, %11
  br i1 %12, label %13, label %21

13:                                               ; preds = %9
  %14 = load i32, i32* %2, align 4
  %15 = sext i32 %14 to i64
  %16 = getelementptr inbounds [301 x i32], [301 x i32]* %5, i64 0, i64 %15
  %17 = call i32 (i8*, ...) @__isoc99_scanf(i8* getelementptr inbounds ([3 x i8], [3 x i8]* @.str, i64 0, i64 0), i32* %16)
  br label %18

18:                                               ; preds = %13
  %19 = load i32, i32* %2, align 4
  %20 = add nsw i32 %19, 1
  store i32 %20, i32* %2, align 4
  br label %9

21:                                               ; preds = %9
  store i32 0, i32* %2, align 4
  br label %22

22:                                               ; preds = %68, %21
  %23 = load i32, i32* %2, align 4
  %24 = load i32, i32* %1, align 4
  %25 = sub nsw i32 %24, 1
  %26 = icmp slt i32 %23, %25
  br i1 %26, label %27, label %71

27:                                               ; preds = %22
  store i32 1, i32* %3, align 4
  br label %28

28:                                               ; preds = %64, %27
  %29 = load i32, i32* %3, align 4
  %30 = load i32, i32* %1, align 4
  %31 = load i32, i32* %2, align 4
  %32 = sub nsw i32 %30, %31
  %33 = icmp slt i32 %29, %32
  br i1 %33, label %34, label %67

34:                                               ; preds = %28
  %35 = load i32, i32* %3, align 4
  %36 = sext i32 %35 to i64
  %37 = getelementptr inbounds [301 x i32], [301 x i32]* %5, i64 0, i64 %36
  %38 = load i32, i32* %37, align 4
  %39 = load i32, i32* %3, align 4
  %40 = sub nsw i32 %39, 1
  %41 = sext i32 %40 to i64
  %42 = getelementptr inbounds [301 x i32], [301 x i32]* %5, i64 0, i64 %41
  %43 = load i32, i32* %42, align 4
  %44 = icmp slt i32 %38, %43
  br i1 %44, label %45, label %63

45:                                               ; preds = %34
  %46 = load i32, i32* %3, align 4
  %47 = sub nsw i32 %46, 1
  %48 = sext i32 %47 to i64
  %49 = getelementptr inbounds [301 x i32], [301 x i32]* %5, i64 0, i64 %48
  %50 = load i32, i32* %49, align 4
  store i32 %50, i32* %4, align 4
  %51 = load i32, i32* %3, align 4
  %52 = sext i32 %51 to i64
  %53 = getelementptr inbounds [301 x i32], [301 x i32]* %5, i64 0, i64 %52
  %54 = load i32, i32* %53, align 4
  %55 = load i32, i32* %3, align 4
  %56 = sub nsw i32 %55, 1
  %57 = sext i32 %56 to i64
  %58 = getelementptr inbounds [301 x i32], [301 x i32]* %5, i64 0, i64 %57
  store i32 %54, i32* %58, align 4
  %59 = load i32, i32* %4, align 4
  %60 = load i32, i32* %3, align 4
  %61 = sext i32 %60 to i64
  %62 = getelementptr inbounds [301 x i32], [301 x i32]* %5, i64 0, i64 %61
  store i32 %59, i32* %62, align 4
  br label %63

63:                                               ; preds = %45, %34
  br label %64

64:                                               ; preds = %63
  %65 = load i32, i32* %3, align 4
  %66 = add nsw i32 %65, 1
  store i32 %66, i32* %3, align 4
  br label %28

67:                                               ; preds = %28
  br label %68

68:                                               ; preds = %67
  %69 = load i32, i32* %2, align 4
  %70 = add nsw i32 %69, 1
  store i32 %70, i32* %2, align 4
  br label %22

71:                                               ; preds = %22
  store i32 0, i32* %2, align 4
  br label %72

72:                                               ; preds = %84, %71
  %73 = load i32, i32* %2, align 4
  %74 = load i32, i32* %1, align 4
  %75 = icmp slt i32 %73, %74
  br i1 %75, label %76, label %87

76:                                               ; preds = %72
  %77 = load i32, i32* %2, align 4
  %78 = sext i32 %77 to i64
  %79 = getelementptr inbounds [301 x i32], [301 x i32]* %5, i64 0, i64 %78
  %80 = load i32, i32* %79, align 4
  %81 = sitofp i32 %80 to float
  %82 = load float, float* %6, align 4
  %83 = fadd float %82, %81
  store float %83, float* %6, align 4
  br label %84

84:                                               ; preds = %76
  %85 = load i32, i32* %2, align 4
  %86 = add nsw i32 %85, 1
  store i32 %86, i32* %2, align 4
  br label %72

87:                                               ; preds = %72
  %88 = load float, float* %6, align 4
  %89 = load i32, i32* %1, align 4
  %90 = sitofp i32 %89 to float
  %91 = fdiv float %88, %90
  store float %91, float* %7, align 4
  %92 = getelementptr inbounds [301 x i32], [301 x i32]* %5, i64 0, i64 0
  %93 = load i32, i32* %92, align 16
  %94 = load i32, i32* %1, align 4
  %95 = sub nsw i32 %94, 1
  %96 = sext i32 %95 to i64
  %97 = getelementptr inbounds [301 x i32], [301 x i32]* %5, i64 0, i64 %96
  %98 = load i32, i32* %97, align 4
  %99 = add nsw i32 %93, %98
  %100 = sitofp i32 %99 to float
  %101 = fdiv float %100, 2.000000e+00
  %102 = load float, float* %7, align 4
  %103 = fsub float %101, %102
  %104 = fpext float %103 to double
  %105 = call double @llvm.fabs.f64(double %104)
  %106 = fcmp ogt double 1.000000e-03, %105
  br i1 %106, label %107, label %116

107:                                              ; preds = %87
  %108 = getelementptr inbounds [301 x i32], [301 x i32]* %5, i64 0, i64 0
  %109 = load i32, i32* %108, align 16
  %110 = load i32, i32* %1, align 4
  %111 = sub nsw i32 %110, 1
  %112 = sext i32 %111 to i64
  %113 = getelementptr inbounds [301 x i32], [301 x i32]* %5, i64 0, i64 %112
  %114 = load i32, i32* %113, align 4
  %115 = call i32 (i8*, ...) @printf(i8* getelementptr inbounds ([7 x i8], [7 x i8]* @.str.1, i64 0, i64 0), i32 %109, i32 %114)
  br label %142

116:                                              ; preds = %87
  %117 = load float, float* %7, align 4
  %118 = fpext float %117 to double
  %119 = getelementptr inbounds [301 x i32], [301 x i32]* %5, i64 0, i64 0
  %120 = load i32, i32* %119, align 16
  %121 = load i32, i32* %1, align 4
  %122 = sub nsw i32 %121, 1
  %123 = sext i32 %122 to i64
  %124 = getelementptr inbounds [301 x i32], [301 x i32]* %5, i64 0, i64 %123
  %125 = load i32, i32* %124, align 4
  %126 = add nsw i32 %120, %125
  %127 = sitofp i32 %126 to double
  %128 = fdiv double %127, 2.000000e+00
  %129 = fcmp olt double %118, %128
  br i1 %129, label %130, label %137

130:                                              ; preds = %116
  %131 = load i32, i32* %1, align 4
  %132 = sub nsw i32 %131, 1
  %133 = sext i32 %132 to i64
  %134 = getelementptr inbounds [301 x i32], [301 x i32]* %5, i64 0, i64 %133
  %135 = load i32, i32* %134, align 4
  %136 = call i32 (i8*, ...) @printf(i8* getelementptr inbounds ([4 x i8], [4 x i8]* @.str.2, i64 0, i64 0), i32 %135)
  br label %141

137:                                              ; preds = %116
  %138 = getelementptr inbounds [301 x i32], [301 x i32]* %5, i64 0, i64 0
  %139 = load i32, i32* %138, align 16
  %140 = call i32 (i8*, ...) @printf(i8* getelementptr inbounds ([4 x i8], [4 x i8]* @.str.2, i64 0, i64 0), i32 %139)
  br label %141

141:                                              ; preds = %137, %130
  br label %142

142:                                              ; preds = %141, %107
  ret void
}

declare dso_local i32 @__isoc99_scanf(i8*, ...) #1

; Function Attrs: nounwind readnone speculatable willreturn
declare double @llvm.fabs.f64(double) #2

declare dso_local i32 @printf(i8*, ...) #1


!llvm.module.flags = !{!0}
!llvm.ident = !{!1}

!0 = !{i32 1, !"wchar_size", i32 4}
!1 = !{!"clang version 10.0.0-4ubuntu1 "}
